; Function Attrs: nounwind uwtable
define noalias nonnull ptr @l_Lean_PrettyPrinter_Delaborator_SubExpr_getPos___at_Lean_PrettyPrinter_Delaborator_TopDownAnalyze_analyzeAppStagedCore_analyzeArg___spec__3___rarg(ptr noundef %0, ptr noundef readonly captures(none) %1, ptr readnone captures(none) %2, ptr readnone captures(none) %3, ptr readnone captures(none) %4, ptr readnone captures(none) %5, ptr readnone captures(none) %6, ptr noundef %7) local_unnamed_addr #1 {
  %9 = getelementptr inbounds nuw i8, ptr %1, i64 8
  %10 = load ptr, ptr %9, align 8, !tbaa !11
  %11 = getelementptr inbounds nuw i8, ptr %10, i64 16
  %12 = load ptr, ptr %11, align 8, !tbaa !11
  %13 = ptrtoint ptr %12 to i64
  %14 = and i64 %13, 1
  %.not = icmp eq i64 %14, 0
  br i1 %.not, label %15, label %lean_inc.exit

15:                                               ; preds = %8
  %.val.i = load i32, ptr %12, align 4, !tbaa !8
  %16 = icmp sgt i32 %.val.i, 0
  br i1 %16, label %17, label %19, !prof !13

17:                                               ; preds = %15
  %18 = add nuw i32 %.val.i, 1
  store i32 %18, ptr %12, align 4, !tbaa !8
  br label %lean_inc.exit

19:                                               ; preds = %15
  %.not.i = icmp eq i32 %.val.i, 0
  br i1 %.not.i, label %lean_inc.exit, label %20

20:                                               ; preds = %19
  tail call void @lean_inc_ref_cold(ptr noundef nonnull %12) #7
  br label %lean_inc.exit

lean_inc.exit:                                    ; preds = %20, %19, %17, %8
  tail call void @lean_inc_heartbeat() #7
  %21 = tail call noalias ptr @mi_malloc_small(i64 noundef 24) #7
  %22 = icmp eq ptr %21, null
  br i1 %22, label %23, label %lean_alloc_ctor.exit

23:                                               ; preds = %lean_inc.exit
  tail call void @lean_internal_panic_out_of_memory() #8
  unreachable

lean_alloc_ctor.exit:                             ; preds = %lean_inc.exit
  %24 = getelementptr inbounds nuw i8, ptr %21, i64 4
  store i32 1, ptr %21, align 4, !tbaa !8
  store i32 131096, ptr %24, align 4
  %25 = getelementptr inbounds nuw i8, ptr %21, i64 8
  store ptr %12, ptr %25, align 8, !tbaa !11
  %26 = getelementptr inbounds nuw i8, ptr %21, i64 16
  store ptr %0, ptr %26, align 8, !tbaa !11
  tail call void @lean_inc_heartbeat() #7
  %27 = tail call noalias ptr @mi_malloc_small(i64 noundef 24) #7
  %28 = icmp eq ptr %27, null
  br i1 %28, label %29, label %lean_alloc_ctor.exit12

29:                                               ; preds = %lean_alloc_ctor.exit
  tail call void @lean_internal_panic_out_of_memory() #8
  unreachable

lean_alloc_ctor.exit12:                           ; preds = %lean_alloc_ctor.exit
  %30 = getelementptr inbounds nuw i8, ptr %27, i64 4
  store i32 1, ptr %27, align 4, !tbaa !8
  store i32 131096, ptr %30, align 4
  %31 = getelementptr inbounds nuw i8, ptr %27, i64 8
  store ptr %21, ptr %31, align 8, !tbaa !11
  %32 = getelementptr inbounds nuw i8, ptr %27, i64 16
  store ptr %7, ptr %32, align 8, !tbaa !11
  ret ptr %27
}